; Function Attrs: nofree nounwind uwtable
define internal void @fmt_dopplerhz(ptr noundef writeonly captures(none) %0, i32 noundef %1) #1 {
  %3 = icmp sgt i32 %1, -1
  %.neg = mul i32 %1, -2
  %4 = shl nuw i32 %1, 1
  %.neg.sink7 = select i1 %3, i32 %4, i32 %.neg
  %.str.752.sink = select i1 %3, ptr @.str.751, ptr @.str.752
  %5 = sdiv i32 %.neg.sink7, 10
  %6 = srem i32 %.neg.sink7, 10
  %7 = tail call i32 (ptr, i64, ptr, ...) @snprintf(ptr noundef nonnull dereferenceable(1) %0, i64 noundef 240, ptr noundef nonnull %.str.752.sink, i32 noundef %5, i32 noundef %6) #5
  ret void
}